; Function Attrs: mustprogress nounwind uwtable
define dso_local void @_ZN4llvm9LiveRange22MergeSegmentsInAsValueERKS0_PNS_6VNInfoE(ptr noundef nonnull align 8 dereferenceable(104) %0, ptr noundef nonnull align 8 dereferenceable(104) %1, ptr noundef %2) local_unnamed_addr #0 align 2 {
  %4 = alloca %"struct.llvm::LiveRange::Segment", align 8
  %5 = alloca %"class.llvm::LiveRangeUpdater", align 8
  store ptr %0, ptr %5, align 8
  %6 = getelementptr inbounds nuw i8, ptr %5, i64 8
  store i64 0, ptr %6, align 8
  %7 = getelementptr inbounds nuw i8, ptr %5, i64 32
  %8 = getelementptr inbounds nuw i8, ptr %5, i64 48
  call void @_ZN4llvm15SmallVectorBaseIjEC2EPvm(ptr noundef nonnull align 8 dereferenceable(400) %7, ptr noundef nonnull %8, i64 noundef 16) #14
  %9 = load ptr, ptr %1, align 8
  %10 = call noundef i64 @_ZNK4llvm15SmallVectorBaseIjE4sizeEv(ptr noundef nonnull align 8 dereferenceable(16) %1) #14
  %11 = getelementptr inbounds %"struct.llvm::LiveRange::Segment", ptr %9, i64 %10
  %.not12 = icmp eq i64 %10, 0
  br i1 %.not12, label %._crit_edge, label %.lr.ph

.lr.ph:                                           ; preds = %3
  %12 = getelementptr inbounds nuw i8, ptr %4, i64 8
  %13 = getelementptr inbounds nuw i8, ptr %4, i64 16
  br label %14

14:                                               ; preds = %.lr.ph, %14
  %.013 = phi ptr [ %9, %.lr.ph ], [ %16, %14 ]
  %.sroa.01.0.copyload = load i64, ptr %.013, align 8
  %15 = getelementptr inbounds nuw i8, ptr %.013, i64 8
  %.sroa.0.0.copyload = load i64, ptr %15, align 8
  call void @llvm.lifetime.start.p0(i64 24, ptr nonnull %4)
  store i64 %.sroa.01.0.copyload, ptr %4, align 8
  store i64 %.sroa.0.0.copyload, ptr %12, align 8
  store ptr %2, ptr %13, align 8
  call void @_ZN4llvm16LiveRangeUpdater3addENS_9LiveRange7SegmentE(ptr noundef nonnull align 8 dereferenceable(432) %5, ptr noundef nonnull byval(%"struct.llvm::LiveRange::Segment") align 8 %4)
  call void @llvm.lifetime.end.p0(i64 24, ptr nonnull %4)
  %16 = getelementptr inbounds nuw i8, ptr %.013, i64 24
  %.not = icmp eq ptr %16, %11
  br i1 %.not, label %._crit_edge, label %14

._crit_edge:                                      ; preds = %14, %3
  call void @_ZN4llvm16LiveRangeUpdater5flushEv(ptr noundef nonnull align 8 dereferenceable(432) %5)
  %17 = call noundef i64 @_ZNK4llvm15SmallVectorBaseIjE4sizeEv(ptr noundef nonnull align 8 dereferenceable(400) %7) #14
  %18 = load ptr, ptr %7, align 8
  %19 = icmp eq ptr %18, %8
  br i1 %19, label %_ZN4llvm16LiveRangeUpdaterD2Ev.exit, label %20

20:                                               ; preds = %._crit_edge
  call void @free(ptr noundef %18) #14
  br label %_ZN4llvm16LiveRangeUpdaterD2Ev.exit

_ZN4llvm16LiveRangeUpdaterD2Ev.exit:              ; preds = %._crit_edge, %20
  ret void
}